; Function Attrs: mustprogress uwtable
define hidden void @_ZN4cvc58internal4prop9LearnedDb17addLearnedLiteralERKNS0_12NodeTemplateILb1EEENS_5modes14LearnedLitTypeE(ptr noundef nonnull align 8 dereferenceable(336) %this, ptr noundef nonnull align 8 dereferenceable(8) %lit, i32 noundef %ltype) local_unnamed_addr #3 align 2 {
entry:
  %ref.tmp.i = alloca i8, align 1
  switch i32 %ltype, label %sw.epilog.i [
    i32 0, label %_ZN4cvc58internal4prop9LearnedDb13getLiteralSetENS_5modes14LearnedLitTypeE.exit
    i32 1, label %sw.bb2.i
    i32 2, label %sw.bb3.i
    i32 3, label %sw.bb4.i
    i32 4, label %sw.bb5.i
  ]

sw.bb2.i:                                         ; preds = %entry
  %d_preprocessLits.i = getelementptr inbounds i8, ptr %this, i64 56
  br label %_ZN4cvc58internal4prop9LearnedDb13getLiteralSetENS_5modes14LearnedLitTypeE.exit

sw.bb3.i:                                         ; preds = %entry
  %d_inputLits.i = getelementptr inbounds i8, ptr %this, i64 112
  br label %_ZN4cvc58internal4prop9LearnedDb13getLiteralSetENS_5modes14LearnedLitTypeE.exit

sw.bb4.i:                                         ; preds = %entry
  %d_solvableLits.i = getelementptr inbounds i8, ptr %this, i64 168
  br label %_ZN4cvc58internal4prop9LearnedDb13getLiteralSetENS_5modes14LearnedLitTypeE.exit

sw.bb5.i:                                         ; preds = %entry
  %d_cpropLits.i = getelementptr inbounds i8, ptr %this, i64 224
  br label %_ZN4cvc58internal4prop9LearnedDb13getLiteralSetENS_5modes14LearnedLitTypeE.exit

sw.epilog.i:                                      ; preds = %entry
  %d_internalLits.i = getelementptr inbounds i8, ptr %this, i64 280
  br label %_ZN4cvc58internal4prop9LearnedDb13getLiteralSetENS_5modes14LearnedLitTypeE.exit

_ZN4cvc58internal4prop9LearnedDb13getLiteralSetENS_5modes14LearnedLitTypeE.exit: ; preds = %entry, %sw.bb2.i, %sw.bb3.i, %sw.bb4.i, %sw.bb5.i, %sw.epilog.i
  %retval.0.i = phi ptr [ %d_internalLits.i, %sw.epilog.i ], [ %d_cpropLits.i, %sw.bb5.i ], [ %d_solvableLits.i, %sw.bb4.i ], [ %d_inputLits.i, %sw.bb3.i ], [ %d_preprocessLits.i, %sw.bb2.i ], [ %this, %entry ]
  call void @llvm.lifetime.start.p0(i64 1, ptr nonnull %ref.tmp.i)
  store i8 1, ptr %ref.tmp.i, align 1
  %call.i = call noundef zeroext i1 @_ZN4cvc57context15CDInsertHashMapINS_8internal12NodeTemplateILb1EEEbSt4hashIS4_EE11insert_safeERKS4_RKb(ptr noundef nonnull align 8 dereferenceable(56) %retval.0.i, ptr noundef nonnull align 8 dereferenceable(8) %lit, ptr noundef nonnull align 1 dereferenceable(1) %ref.tmp.i)
  call void @llvm.lifetime.end.p0(i64 1, ptr nonnull %ref.tmp.i)
  ret void
}